target datalayout = "e-m:e-p270:32:32-p271:32:32-p272:64:64-i64:64-i128:128-f80:128-n8:16:32:64-S128"
target triple = "x86_64-pc-linux-gnu"

%struct.lxb_html_document = type { %struct.lxb_dom_document, ptr, ptr, ptr, %struct.lxb_html_document_css_t, i8, ptr, i32, i32 }
%struct.lxb_dom_document = type { %struct.lxb_dom_node, i32, i32, ptr, ptr, ptr, ptr, ptr, ptr, ptr, ptr, ptr, ptr, ptr, ptr, ptr, ptr, ptr, ptr, ptr, i8, i8, i8 }
%struct.lxb_dom_node = type { %struct.lxb_dom_event_target, i64, i64, i64, ptr, ptr, ptr, ptr, ptr, ptr, ptr, i32, i64 }
%struct.lxb_dom_event_target = type { ptr }
%struct.lxb_html_document_css_t = type { ptr, ptr, ptr, ptr, ptr, ptr, ptr, ptr, i64 }

; Function Attrs: nounwind uwtable
define hidden ptr @lxb_html_interface_create(ptr noundef %0, i64 noundef %1, i64 noundef %2) #0 {
  %4 = alloca ptr, align 8
  %5 = alloca ptr, align 8
  %6 = alloca i64, align 8
  %7 = alloca i64, align 8
  %8 = alloca ptr, align 8
  %9 = alloca ptr, align 8
  %10 = alloca ptr, align 8
  %11 = alloca ptr, align 8
  store ptr %0, ptr %5, align 8
  store i64 %1, ptr %6, align 8
  store i64 %2, ptr %7, align 8
  %12 = load i64, ptr %6, align 8
  %13 = icmp uge i64 %12, 196
  br i1 %13, label %14, label %36

14:                                               ; preds = %3
  %15 = load i64, ptr %7, align 8
  %16 = icmp eq i64 %15, 2
  br i1 %16, label %17, label %21

17:                                               ; preds = %14
  %18 = load ptr, ptr %5, align 8
  %19 = call ptr @lxb_html_unknown_element_interface_create(ptr noundef %18)
  store ptr %19, ptr %9, align 8
  %20 = load ptr, ptr %9, align 8
  store ptr %20, ptr %8, align 8
  br label %35

21:                                               ; preds = %14
  %22 = load i64, ptr %7, align 8
  %23 = icmp eq i64 %22, 4
  br i1 %23, label %24, label %29

24:                                               ; preds = %21
  %25 = load ptr, ptr %5, align 8
  %26 = getelementptr inbounds %struct.lxb_html_document, ptr %25, i32 0, i32 0
  %27 = call ptr @lxb_dom_element_interface_create(ptr noundef %26)
  store ptr %27, ptr %10, align 8
  %28 = load ptr, ptr %10, align 8
  store ptr %28, ptr %8, align 8
  br label %34

29:                                               ; preds = %21
  %30 = load ptr, ptr %5, align 8
  %31 = getelementptr inbounds %struct.lxb_html_document, ptr %30, i32 0, i32 0
  %32 = call ptr @lxb_dom_element_interface_create(ptr noundef %31)
  store ptr %32, ptr %11, align 8
  %33 = load ptr, ptr %11, align 8
  store ptr %33, ptr %8, align 8
  br label %34

34:                                               ; preds = %29, %24
  br label %35

35:                                               ; preds = %34, %17
  br label %44

36:                                               ; preds = %3
  %37 = load i64, ptr %6, align 8
  %38 = getelementptr inbounds [196 x [8 x ptr]], ptr @lxb_html_interface_res_constructors, i64 0, i64 %37
  %39 = load i64, ptr %7, align 8
  %40 = getelementptr inbounds [8 x ptr], ptr %38, i64 0, i64 %39
  %41 = load ptr, ptr %40, align 8
  %42 = load ptr, ptr %5, align 8
  %43 = call ptr %41(ptr noundef %42)
  store ptr %43, ptr %8, align 8
  br label %44

44:                                               ; preds = %36, %35
  %45 = load ptr, ptr %8, align 8
  %46 = icmp eq ptr %45, null
  br i1 %46, label %47, label %48

47:                                               ; preds = %44
  store ptr null, ptr %4, align 8
  br label %56

48:                                               ; preds = %44
  %49 = load i64, ptr %6, align 8
  %50 = load ptr, ptr %8, align 8
  %51 = getelementptr inbounds %struct.lxb_dom_node, ptr %50, i32 0, i32 1
  store i64 %49, ptr %51, align 8
  %52 = load i64, ptr %7, align 8
  %53 = load ptr, ptr %8, align 8
  %54 = getelementptr inbounds %struct.lxb_dom_node, ptr %53, i32 0, i32 3
  store i64 %52, ptr %54, align 8
  %55 = load ptr, ptr %8, align 8
  store ptr %55, ptr %4, align 8
  br label %56

56:                                               ; preds = %48, %47
  %57 = load ptr, ptr %4, align 8
  ret ptr %57
}