; Function Attrs: nounwind uwtable
define hidden ptr @lxb_html_interface_create(ptr noundef %0, i64 noundef %1, i64 noundef %2) local_unnamed_addr #0 {
  %4 = icmp ugt i64 %1, 195
  br i1 %4, label %5, label %12

5:                                                ; preds = %3
  switch i64 %2, label %10 [
    i64 2, label %6
    i64 4, label %8
  ]

6:                                                ; preds = %5
  %7 = tail call ptr @lxb_html_unknown_element_interface_create(ptr noundef %0) #2
  br label %16

8:                                                ; preds = %5
  %9 = tail call ptr @lxb_dom_element_interface_create(ptr noundef %0) #2
  br label %16

10:                                               ; preds = %5
  %11 = tail call ptr @lxb_dom_element_interface_create(ptr noundef %0) #2
  br label %16

12:                                               ; preds = %3
  %13 = getelementptr inbounds [196 x [8 x ptr]], ptr @lxb_html_interface_res_constructors, i64 0, i64 %1, i64 %2
  %14 = load ptr, ptr %13, align 8
  %15 = tail call ptr %14(ptr noundef %0) #2
  br label %16

16:                                               ; preds = %6, %10, %8, %12
  %.018 = phi ptr [ %7, %6 ], [ %9, %8 ], [ %11, %10 ], [ %15, %12 ]
  %17 = icmp eq ptr %.018, null
  br i1 %17, label %21, label %18

18:                                               ; preds = %16
  %19 = getelementptr inbounds i8, ptr %.018, i64 8
  store i64 %1, ptr %19, align 8
  %20 = getelementptr inbounds i8, ptr %.018, i64 24
  store i64 %2, ptr %20, align 8
  br label %21

21:                                               ; preds = %16, %18
  ret ptr %.018
}